target datalayout = "e-m:e-p270:32:32-p271:32:32-p272:64:64-i64:64-i128:128-f80:128-n8:16:32:64-S128"
target triple = "x86_64-pc-linux-gnu"

%struct.sockaddr_un = type { i16, [108 x i8] }
%union.__CONST_SOCKADDR_ARG = type { ptr }

@.str.1 = private unnamed_addr constant [30 x i8] c"java/io/FileNotFoundException\00", align 1

; Function Attrs: nounwind uwtable
define void @Java_sun_tools_attach_VirtualMachineImpl_connect(ptr noundef %0, ptr noundef %1, i32 noundef %2, ptr noundef %3) #0 {
  %5 = alloca ptr, align 8
  %6 = alloca ptr, align 8
  %7 = alloca i32, align 4
  %8 = alloca ptr, align 8
  %9 = alloca i8, align 1
  %10 = alloca ptr, align 8
  %11 = alloca %struct.sockaddr_un, align 2
  %12 = alloca i32, align 4
  %13 = alloca %union.__CONST_SOCKADDR_ARG, align 8
  %14 = alloca ptr, align 8
  store ptr %0, ptr %5, align 8
  store ptr %1, ptr %6, align 8
  store i32 %2, ptr %7, align 4
  store ptr %3, ptr %8, align 8
  %15 = load ptr, ptr %5, align 8
  %16 = load ptr, ptr %8, align 8
  %17 = call ptr @GetStringPlatformChars(ptr noundef %15, ptr noundef %16, ptr noundef %9)
  store ptr %17, ptr %10, align 8
  %18 = load ptr, ptr %10, align 8
  %19 = icmp ne ptr %18, null
  br i1 %19, label %20, label %62

20:                                               ; preds = %4
  store i32 0, ptr %12, align 4
  call void @llvm.memset.p0.i64(ptr align 2 %11, i8 0, i64 110, i1 false)
  %21 = getelementptr inbounds %struct.sockaddr_un, ptr %11, i32 0, i32 0
  store i16 1, ptr %21, align 2
  %22 = getelementptr inbounds %struct.sockaddr_un, ptr %11, i32 0, i32 1
  %23 = getelementptr inbounds [108 x i8], ptr %22, i64 0, i64 0
  %24 = load ptr, ptr %10, align 8
  %25 = call ptr @strncpy(ptr noundef %23, ptr noundef %24, i64 noundef 107) #5
  %26 = load i32, ptr %7, align 4
  store ptr %11, ptr %13, align 8
  %27 = getelementptr inbounds %union.__CONST_SOCKADDR_ARG, ptr %13, i32 0, i32 0
  %28 = load ptr, ptr %27, align 8
  %29 = call i32 @connect(i32 noundef %26, ptr %28, i32 noundef 110)
  %30 = icmp eq i32 %29, -1
  br i1 %30, label %31, label %34

31:                                               ; preds = %20
  %32 = call ptr @__errno_location() #6
  %33 = load i32, ptr %32, align 4
  store i32 %33, ptr %12, align 4
  br label %34

34:                                               ; preds = %31, %20
  %35 = load i8, ptr %9, align 1
  %36 = icmp ne i8 %35, 0
  br i1 %36, label %37, label %41

37:                                               ; preds = %34
  %38 = load ptr, ptr %5, align 8
  %39 = load ptr, ptr %8, align 8
  %40 = load ptr, ptr %10, align 8
  call void @JNU_ReleaseStringPlatformChars(ptr noundef %38, ptr noundef %39, ptr noundef %40)
  br label %41

41:                                               ; preds = %37, %34
  %42 = load i32, ptr %12, align 4
  %43 = icmp ne i32 %42, 0
  br i1 %43, label %44, label %61

44:                                               ; preds = %41
  %45 = load i32, ptr %12, align 4
  %46 = icmp eq i32 %45, 2
  br i1 %46, label %47, label %49

47:                                               ; preds = %44
  %48 = load ptr, ptr %5, align 8
  call void @JNU_ThrowByName(ptr noundef %48, ptr noundef @.str.1, ptr noundef null)
  br label %60

49:                                               ; preds = %44
  %50 = load i32, ptr %12, align 4
  %51 = call ptr @strerror(i32 noundef %50) #5
  %52 = call noalias ptr @strdup(ptr noundef %51) #5
  store ptr %52, ptr %14, align 8
  %53 = load ptr, ptr %5, align 8
  %54 = load ptr, ptr %14, align 8
  call void @JNU_ThrowIOException(ptr noundef %53, ptr noundef %54)
  %55 = load ptr, ptr %14, align 8
  %56 = icmp ne ptr %55, null
  br i1 %56, label %57, label %59

57:                                               ; preds = %49
  %58 = load ptr, ptr %14, align 8
  call void @free(ptr noundef %58) #5
  br label %59

59:                                               ; preds = %57, %49
  br label %60

60:                                               ; preds = %59, %47
  br label %61

61:                                               ; preds = %60, %41
  br label %62

62:                                               ; preds = %61, %4
  ret void
}