; Function Attrs: nounwind uwtable
define void @Java_sun_tools_attach_VirtualMachineImpl_connect(ptr noundef %0, ptr nocapture noundef readnone %1, i32 noundef %2, ptr noundef %3) local_unnamed_addr #0 {
  %5 = alloca i8, align 1
  %6 = alloca %struct.sockaddr_un, align 2
  %7 = call ptr @GetStringPlatformChars(ptr noundef %0, ptr noundef %3, ptr noundef nonnull %5) #11
  %.not = icmp eq ptr %7, null
  br i1 %.not, label %26, label %8

8:                                                ; preds = %4
  %9 = getelementptr inbounds i8, ptr %6, i64 108
  store i16 0, ptr %9, align 2
  store i16 1, ptr %6, align 2
  %10 = getelementptr inbounds i8, ptr %6, i64 2
  %11 = call ptr @strncpy(ptr noundef nonnull dereferenceable(1) %10, ptr noundef nonnull dereferenceable(1) %7, i64 noundef 107) #11
  %12 = call i32 @connect(i32 noundef %2, ptr nonnull %6, i32 noundef 110) #11
  %13 = icmp eq i32 %12, -1
  br i1 %13, label %14, label %17

14:                                               ; preds = %8
  %15 = tail call ptr @__errno_location() #12
  %16 = load i32, ptr %15, align 4
  br label %17

17:                                               ; preds = %14, %8
  %.0 = phi i32 [ %16, %14 ], [ 0, %8 ]
  %18 = load i8, ptr %5, align 1
  %.not17 = icmp eq i8 %18, 0
  br i1 %.not17, label %20, label %19

19:                                               ; preds = %17
  call void @JNU_ReleaseStringPlatformChars(ptr noundef %0, ptr noundef %3, ptr noundef nonnull %7) #11
  br label %20

20:                                               ; preds = %19, %17
  switch i32 %.0, label %22 [
    i32 0, label %26
    i32 2, label %21
  ]

21:                                               ; preds = %20
  call void @JNU_ThrowByName(ptr noundef %0, ptr noundef nonnull @.str.1, ptr noundef null) #11
  br label %26

22:                                               ; preds = %20
  %23 = call ptr @strerror(i32 noundef %.0) #11
  %24 = call noalias ptr @strdup(ptr noundef %23) #11
  call void @JNU_ThrowIOException(ptr noundef %0, ptr noundef %24) #11
  %.not19 = icmp eq ptr %24, null
  br i1 %.not19, label %26, label %25

25:                                               ; preds = %22
  call void @free(ptr noundef nonnull %24) #11
  br label %26

26:                                               ; preds = %20, %22, %25, %21, %4
  ret void
}